-----BEGIN RSA PRIVATE KEY-----
Proc-Type: 4,ENCRYPTED
DEK-Info: DES-EDE3-CBC,EED7DA26C14CB43A

SXVUpacwxLlSk5BdJQFHFPajFPdthOyu3hYgfdP4Ncb+BBtLGN5KJhz5K454V/rQ
1uPI95QGpo0gi86pM6xl/jw3pLCRQKCXJNz7E/T6oVu5MPHj+V6jeb+ggktfj6aR
hz+fokOTb4bKBnZzYVuDeSx9eqKFGAcpVuMX92xw+PknbKf8Eh+OAqHtvdxlDDC6
9XYy4VLll0VGwqhapgOOJ5G093fbhvWPyir1qHLwk+OpLJVLE9l3/fBm6gR6qm3G
x/yvyDJuvSp3CfMHJYUa3J6+mWliltYJ53Z2VKcs01SYs+owaEAkwdp803wxC6wD
6xqdAADciMNsdU7Wp6yK/cxb13QvyPsizTuY2LhdMCD5FtFEbPeLPafma1ca0R3i
HknxqATMh8VYX8/PdcXt1yf0GrKGligTxvbpKvbulrLh/bV17m9XPa7Xfpvti0gw
JOQDB7GBGorjwGIGj0XP+D0fasKURFFcbVSDTBtQCBnQO9HnS9xbnoQh6/zE4UWl
/aLUV2c/KdkjFjkxW3YSLX/ZxMXQHGPOssRkOszwoYvdgX89O2xhpRi7gIxTkNPs
zH0TmSzsQ0b04JcfU4i4SIXkc6yQbgsb/k6mN7pVtgUmC0S1/NrC5+8+59Fopq+Y
S9Io6pLDA+BaPdb1J0+e3T39809lQcDadbfC1zQpQy6edFlnk8L+8f0D1oiJhhSy
6LAVy3NxTbburga8gC1fK77rjiepLxbjrQcQ/Q+y/fMzQN1Qw5DCI53CtWitQWO1
mGS0M78du8+6nvTYpeYZnfYQL3vlhGpWKXaLfnyClLm2rQBX7FdUHw==
-----END RSA PRIVATE KEY-----
Certificate:
    Data:
        Version: 3 (0x2)
        Serial Number: 1031 (0x407)
        Signature Algorithm: md5WithRSAEncryption
        Issuer: C=US, ST=Utah, L=Salt Lake Sim City, O=Utah Network Second Life, OU=Certificate Authority, CN=myboss.jonlab.testbed.emulab.net/emailAddress=testbed-ops@myops.jonlab.testbed.emulab.net
        Validity
            Not Before: May 29 13:59:01 2013 GMT
            Not After : May 29 13:59:01 2014 GMT
        Subject: C=US, ST=Utah, O=Utah Network Second Life, OU=jonlab.user, CN=771de3ca-c867-11e2-b001-0024e87927eb/emailAddress=user@jonlab.testbed.emulab.net
        Subject Public Key Info:
            Public Key Algorithm: rsaEncryption
            RSA Public Key: (1024 bit)
                Modulus (1024 bit):
                    00:9c:0c:6c:2e:ad:18:69:6a:70:be:49:b2:6e:b9:
                    b8:c4:32:ca:bf:5e:a5:41:09:32:27:40:57:9a:4c:
                    8b:92:36:8e:5c:32:fb:17:c8:d3:53:93:f9:b9:aa:
                    fd:9a:81:eb:22:e0:4c:44:40:5c:cc:7f:c5:c8:c0:
                    dc:cf:73:45:c3:b6:87:78:0a:e9:6d:91:e4:98:35:
                    b1:96:e8:70:76:92:e9:0a:7c:9e:b7:1e:5d:47:67:
                    58:9c:47:3f:1c:07:96:41:9c:35:98:ac:4c:da:c1:
                    fe:3c:d4:21:9b:f3:aa:91:ca:b0:78:fc:48:a0:05:
                    07:24:57:a3:b1:60:78:4b:9b
                Exponent: 65537 (0x10001)
        X509v3 extensions:
            X509v3 Basic Constraints: critical
                CA:FALSE
            X509v3 Subject Key Identifier: 
                06:D3:22:01:CE:FE:68:A6:69:3A:6B:A6:03:8D:D4:1B:FA:3A:B4:F6
            X509v3 Subject Alternative Name: 
                URI:urn:publicid:IDN+jonlab.testbed.emulab.net+user+user, email:user@jonlab.testbed.emulab.net, URI:urn:uuid:771de3ca-c867-11e2-b001-0024e87927eb
            Authority Information Access: 
                2.25.305821105408246119474742976030998643995 - URI:https://myboss.jonlab.testbed.emulab.net:12369/protogeni/xmlrpc/sa

    Signature Algorithm: md5WithRSAEncryption
        5c:76:b7:fb:d1:83:db:9c:8a:10:be:55:1d:5f:fa:c1:46:1e:
        17:c6:8e:79:ba:a2:7c:91:91:1d:9c:82:9c:37:f3:9a:8b:06:
        24:56:e3:c7:5a:5f:e4:ab:19:93:9c:1e:f4:ef:e7:bd:ba:18:
        6c:cc:d8:50:2e:e5:a7:5e:e0:fe:c3:4f:20:70:15:0d:42:25:
        31:17:d3:23:5b:59:f0:d4:ba:cb:42:3b:d2:85:eb:49:29:5b:
        3a:52:eb:7f:52:76:c3:6d:e4:b4:e4:b9:21:43:0d:08:d5:0e:
        f9:6a:56:5c:63:aa:f9:a9:16:64:99:c6:c3:8a:c4:7c:21:11:
        e3:26
-----BEGIN CERTIFICATE-----
MIIEQTCCA6qgAwIBAgICBAcwDQYJKoZIhvcNAQEEBQAwgeMxCzAJBgNVBAYTAlVT
MQ0wCwYDVQQIEwRVdGFoMRswGQYDVQQHExJTYWx0IExha2UgU2ltIENpdHkxITAf
BgNVBAoTGFV0YWggTmV0d29yayBTZWNvbmQgTGlmZTEeMBwGA1UECxMVQ2VydGlm
aWNhdGUgQXV0aG9yaXR5MSkwJwYDVQQDEyBteWJvc3Muam9ubGFiLnRlc3RiZWQu
ZW11bGFiLm5ldDE6MDgGCSqGSIb3DQEJARYrdGVzdGJlZC1vcHNAbXlvcHMuam9u
bGFiLnRlc3RiZWQuZW11bGFiLm5ldDAeFw0xMzA1MjkxMzU5MDFaFw0xNDA1Mjkx
MzU5MDFaMIGzMQswCQYDVQQGEwJVUzENMAsGA1UECBMEVXRhaDEhMB8GA1UEChMY
VXRhaCBOZXR3b3JrIFNlY29uZCBMaWZlMRQwEgYDVQQLEwtqb25sYWIudXNlcjEt
MCsGA1UEAxMkNzcxZGUzY2EtYzg2Ny0xMWUyLWIwMDEtMDAyNGU4NzkyN2ViMS0w
KwYJKoZIhvcNAQkBFh51c2VyQGpvbmxhYi50ZXN0YmVkLmVtdWxhYi5uZXQwgZ8w
DQYJKoZIhvcNAQEBBQADgY0AMIGJAoGBAJwMbC6tGGlqcL5Jsm65uMQyyr9epUEJ
MidAV5pMi5I2jlwy+xfI01OT+bmq/ZqB6yLgTERAXMx/xcjA3M9zRcO2h3gK6W2R
5Jg1sZbocHaS6Qp8nrceXUdnWJxHPxwHlkGcNZisTNrB/jzUIZvzqpHKsHj8SKAF
ByRXo7FgeEubAgMBAAGjggEwMIIBLDAMBgNVHRMBAf8EAjAAMB0GA1UdDgQWBBQG
0yIBzv5opmk6a6YDjdQb+jq09jCBkAYDVR0RBIGIMIGFhjR1cm46cHVibGljaWQ6
SUROK2pvbmxhYi50ZXN0YmVkLmVtdWxhYi5uZXQrdXNlcit1c2VygR51c2VyQGpv
bmxhYi50ZXN0YmVkLmVtdWxhYi5uZXSGLXVybjp1dWlkOjc3MWRlM2NhLWM4Njct
MTFlMi1iMDAxLTAwMjRlODc5MjdlYjBqBggrBgEFBQcBAQReMFwwWgYUaYPMk4Co
mMyox72xp4CAqq7XihuGQmh0dHBzOi8vbXlib3NzLmpvbmxhYi50ZXN0YmVkLmVt
dWxhYi5uZXQ6MTIzNjkvcHJvdG9nZW5pL3htbHJwYy9zYTANBgkqhkiG9w0BAQQF
AAOBgQBcdrf70YPbnIoQvlUdX/rBRh4Xxo55uqJ8kZEdnIKcN/OaiwYkVuPHWl/k
qxmTnB707+e9uhhszNhQLuWnXuD+w08gcBUNQiUxF9MjW1nw1LrLQjvShetJKVs6
Uut/UnbDbeS05LkhQw0I1Q75alZcY6r5qRZkmcbDisR8IRHjJg==
-----END CERTIFICATE-----
